target datalayout = "e-m:e-p270:32:32-p271:32:32-p272:64:64-i64:64-i128:128-f80:128-n8:16:32:64-S128"
target triple = "x86_64-pc-linux-gnu"

%"class.llvm::StringRef" = type { ptr, i64 }
%class.anon.570 = type { ptr }

; Function Attrs: mustprogress nounwind uwtable
define linkonce_odr hidden noundef zeroext i1 @_ZNK4llvm9StringRef5emptyEv(ptr noundef nonnull align 8 dereferenceable(16) %0) #1 comdat align 2 {
  %2 = alloca ptr, align 8
  store ptr %0, ptr %2, align 8
  %3 = load ptr, ptr %2, align 8
  %4 = getelementptr inbounds nuw %"class.llvm::StringRef", ptr %3, i32 0, i32 1
  %5 = load i64, ptr %4, align 8
  %6 = icmp eq i64 %5, 0
  ret i1 %6
}

; Function Attrs: mustprogress nounwind uwtable
define internal { ptr, i64 } @"_ZZL14runNewPMPassesRKN4llvm3lto6ConfigERNS_6ModuleEPNS_13TargetMachineEjbPNS_18ModuleSummaryIndexEPKS8_ENK3$_2clENS_9StringRefE"(ptr noundef nonnull align 8 dereferenceable(8) %0, ptr %1, i64 %2) #1 align 2 {
  %4 = alloca %"class.llvm::StringRef", align 8
  %5 = alloca %"class.llvm::StringRef", align 8
  %6 = alloca ptr, align 8
  %7 = alloca %"class.llvm::StringRef", align 8
  %8 = alloca %"class.llvm::StringRef", align 8
  %9 = getelementptr inbounds nuw { ptr, i64 }, ptr %5, i32 0, i32 0
  store ptr %1, ptr %9, align 8
  %10 = getelementptr inbounds nuw { ptr, i64 }, ptr %5, i32 0, i32 1
  store i64 %2, ptr %10, align 8
  store ptr %0, ptr %6, align 8
  %11 = load ptr, ptr %6, align 8
  %12 = getelementptr inbounds nuw %class.anon.570, ptr %11, i32 0, i32 0
  %13 = load ptr, ptr %12, align 8
  call void @llvm.memcpy.p0.p0.i64(ptr align 8 %8, ptr align 8 %5, i64 16, i1 false)
  %14 = getelementptr inbounds nuw { ptr, i64 }, ptr %8, i32 0, i32 0
  %15 = load ptr, ptr %14, align 8
  %16 = getelementptr inbounds nuw { ptr, i64 }, ptr %8, i32 0, i32 1
  %17 = load i64, ptr %16, align 8
  %18 = call { ptr, i64 } @_ZN4llvm28PassInstrumentationCallbacks23getPassNameForClassNameENS_9StringRefE(ptr noundef nonnull align 8 dereferenceable(1464) %13, ptr %15, i64 %17)
  %19 = getelementptr inbounds nuw { ptr, i64 }, ptr %7, i32 0, i32 0
  %20 = extractvalue { ptr, i64 } %18, 0
  store ptr %20, ptr %19, align 8
  %21 = getelementptr inbounds nuw { ptr, i64 }, ptr %7, i32 0, i32 1
  %22 = extractvalue { ptr, i64 } %18, 1
  store i64 %22, ptr %21, align 8
  %23 = call noundef zeroext i1 @_ZNK4llvm9StringRef5emptyEv(ptr noundef nonnull align 8 dereferenceable(16) %7)
  br i1 %23, label %24, label %25

24:                                               ; preds = %3
  br label %26

25:                                               ; preds = %3
  br label %26

26:                                               ; preds = %25, %24
  %27 = phi ptr [ %5, %24 ], [ %7, %25 ]
  call void @llvm.memcpy.p0.p0.i64(ptr align 8 %4, ptr align 8 %27, i64 16, i1 false)
  %28 = load { ptr, i64 }, ptr %4, align 8
  ret { ptr, i64 } %28
}

; Function Attrs: mustprogress nounwind uwtable
define internal { ptr, i64 } @"_ZN4llvm12function_refIFNS_9StringRefES1_EE11callback_fnIZL14runNewPMPassesRKNS_3lto6ConfigERNS_6ModuleEPNS_13TargetMachineEjbPNS_18ModuleSummaryIndexEPKSD_E3$_2EES1_lS1_"(i64 noundef %0, ptr %1, i64 %2) #1 align 2 {
  %4 = alloca %"class.llvm::StringRef", align 8
  %5 = alloca %"class.llvm::StringRef", align 8
  %6 = alloca i64, align 8
  %7 = alloca %"class.llvm::StringRef", align 8
  %8 = getelementptr inbounds nuw { ptr, i64 }, ptr %5, i32 0, i32 0
  store ptr %1, ptr %8, align 8
  %9 = getelementptr inbounds nuw { ptr, i64 }, ptr %5, i32 0, i32 1
  store i64 %2, ptr %9, align 8
  store i64 %0, ptr %6, align 8
  %10 = load i64, ptr %6, align 8
  %11 = inttoptr i64 %10 to ptr
  call void @llvm.memcpy.p0.p0.i64(ptr align 8 %7, ptr align 8 %5, i64 16, i1 false)
  %12 = getelementptr inbounds nuw { ptr, i64 }, ptr %7, i32 0, i32 0
  %13 = load ptr, ptr %12, align 8
  %14 = getelementptr inbounds nuw { ptr, i64 }, ptr %7, i32 0, i32 1
  %15 = load i64, ptr %14, align 8
  %16 = call { ptr, i64 } @"_ZZL14runNewPMPassesRKN4llvm3lto6ConfigERNS_6ModuleEPNS_13TargetMachineEjbPNS_18ModuleSummaryIndexEPKS8_ENK3$_2clENS_9StringRefE"(ptr noundef nonnull align 8 dereferenceable(8) %11, ptr %13, i64 %15)
  %17 = getelementptr inbounds nuw { ptr, i64 }, ptr %4, i32 0, i32 0
  %18 = extractvalue { ptr, i64 } %16, 0
  store ptr %18, ptr %17, align 8
  %19 = getelementptr inbounds nuw { ptr, i64 }, ptr %4, i32 0, i32 1
  %20 = extractvalue { ptr, i64 } %16, 1
  store i64 %20, ptr %19, align 8
  %21 = load { ptr, i64 }, ptr %4, align 8
  ret { ptr, i64 } %21
}