; Function Attrs: mustprogress nounwind uwtable
define internal { ptr, i64 } @"_ZN4llvm12function_refIFNS_9StringRefES1_EE11callback_fnIZL14runNewPMPassesRKNS_3lto6ConfigERNS_6ModuleEPNS_13TargetMachineEjbPNS_18ModuleSummaryIndexEPKSD_E3$_2EES1_lS1_"(i64 noundef %0, ptr %1, i64 %2) #0 align 2 {
  %4 = inttoptr i64 %0 to ptr
  %.val = load ptr, ptr %4, align 8
  %5 = tail call { ptr, i64 } @_ZN4llvm28PassInstrumentationCallbacks23getPassNameForClassNameENS_9StringRefE(ptr noundef nonnull align 8 dereferenceable(1464) %.val, ptr %1, i64 %2) #24
  %6 = extractvalue { ptr, i64 } %5, 0
  %7 = extractvalue { ptr, i64 } %5, 1
  %8 = icmp eq i64 %7, 0
  %.sroa.01.0.copyload.sroa.speculated.i = select i1 %8, ptr %1, ptr %6
  %.sroa.22.0.copyload.sroa.speculated.i = select i1 %8, i64 %2, i64 %7
  %.fca.0.insert.i = insertvalue { ptr, i64 } poison, ptr %.sroa.01.0.copyload.sroa.speculated.i, 0
  %.fca.1.insert.i = insertvalue { ptr, i64 } %.fca.0.insert.i, i64 %.sroa.22.0.copyload.sroa.speculated.i, 1
  ret { ptr, i64 } %.fca.1.insert.i
}